; Function Attrs: mustprogress uwtable
define hidden void @_Z14luaV_getimportP9lua_StateP8LuaTableP10lua_TValueS4_jb(ptr noundef %0, ptr noundef %1, ptr noundef %2, ptr noundef %3, i32 noundef %4, i1 noundef zeroext %5) local_unnamed_addr #0 {
  %7 = alloca %struct.lua_TValue, align 8
  %8 = lshr i32 %4, 20
  %9 = and i32 %8, 1023
  %10 = lshr i32 %4, 10
  %11 = and i32 %10, 1023
  %12 = and i32 %4, 1023
  %13 = getelementptr inbounds nuw i8, ptr %0, i64 48
  %14 = load ptr, ptr %13, align 8, !tbaa !4
  %15 = ptrtoint ptr %3 to i64
  %16 = ptrtoint ptr %14 to i64
  %17 = sub i64 %15, %16
  call void @llvm.lifetime.start.p0(i64 16, ptr nonnull %7) #10
  store ptr %1, ptr %7, align 8, !tbaa !19
  %18 = getelementptr inbounds nuw i8, ptr %7, i64 12
  store i32 6, ptr %18, align 4, !tbaa !20
  %19 = zext nneg i32 %9 to i64
  %20 = getelementptr inbounds nuw %struct.lua_TValue, ptr %2, i64 %19
  call void @_Z13luaV_gettableP9lua_StatePK10lua_TValuePS1_S4_(ptr noundef %0, ptr noundef nonnull %7, ptr noundef %20, ptr noundef %3)
  %21 = icmp sgt i32 %4, -1
  br i1 %21, label %.thread33.thread, label %22

22:                                               ; preds = %6
  %23 = load ptr, ptr %13, align 8, !tbaa !4
  %24 = getelementptr inbounds i8, ptr %23, i64 %17
  br i1 %5, label %25, label %29

25:                                               ; preds = %22
  %26 = getelementptr inbounds nuw i8, ptr %24, i64 12
  %27 = load i32, ptr %26, align 4, !tbaa !20
  %28 = icmp eq i32 %27, 0
  br i1 %28, label %.thread33.thread, label %29

29:                                               ; preds = %22, %25
  %30 = zext nneg i32 %11 to i64
  %31 = getelementptr inbounds nuw %struct.lua_TValue, ptr %2, i64 %30
  call void @_Z13luaV_gettableP9lua_StatePK10lua_TValuePS1_S4_(ptr noundef nonnull %0, ptr noundef %24, ptr noundef %31, ptr noundef %24)
  %.not = icmp samesign ugt i32 %4, -1073741825
  br i1 %.not, label %32, label %.thread33.thread

32:                                               ; preds = %29
  %33 = load ptr, ptr %13, align 8, !tbaa !4
  %34 = getelementptr inbounds i8, ptr %33, i64 %17
  br i1 %5, label %.thread33, label %36

.thread33:                                        ; preds = %32
  %.phi.trans.insert = getelementptr inbounds nuw i8, ptr %34, i64 12
  %.pre = load i32, ptr %.phi.trans.insert, align 4, !tbaa !20
  %35 = icmp eq i32 %.pre, 0
  br i1 %35, label %.thread33.thread, label %36

36:                                               ; preds = %.thread33, %32
  %37 = zext nneg i32 %12 to i64
  %38 = getelementptr inbounds nuw %struct.lua_TValue, ptr %2, i64 %37
  call void @_Z13luaV_gettableP9lua_StatePK10lua_TValuePS1_S4_(ptr noundef nonnull %0, ptr noundef %34, ptr noundef %38, ptr noundef %34)
  br label %.thread33.thread

.thread33.thread:                                 ; preds = %25, %.thread33, %36, %29, %6
  call void @llvm.lifetime.end.p0(i64 16, ptr nonnull %7) #10
  ret void
}